; Function Attrs: mustprogress nofree norecurse nosync nounwind willreturn memory(read, inaccessiblemem: none) uwtable
define dso_local noundef i32 @_ZNK27btMultiBodySliderConstraint12getIslandIdAEv(ptr noundef nonnull readonly align 8 captures(none) dereferenceable(256) %0) unnamed_addr #7 align 2 {
  %2 = getelementptr inbounds nuw i8, ptr %0, i64 96
  %3 = load ptr, ptr %2, align 8, !tbaa !7
  %.not = icmp eq ptr %3, null
  br i1 %.not, label %4, label %.thread.sink.split

4:                                                ; preds = %1
  %5 = getelementptr inbounds nuw i8, ptr %0, i64 8
  %6 = load ptr, ptr %5, align 8, !tbaa !34
  %.not9 = icmp eq ptr %6, null
  br i1 %.not9, label %.thread, label %7

7:                                                ; preds = %4
  %8 = getelementptr inbounds nuw i8, ptr %0, i64 24
  %9 = load i32, ptr %8, align 8, !tbaa !35
  %10 = icmp slt i32 %9, 0
  br i1 %10, label %11, label %14

11:                                               ; preds = %7
  %12 = getelementptr inbounds nuw i8, ptr %6, i64 8
  %13 = load ptr, ptr %12, align 8, !tbaa !36
  %.not11.not = icmp eq ptr %13, null
  br i1 %.not11.not, label %.thread, label %.thread.sink.split

14:                                               ; preds = %7
  %15 = getelementptr inbounds nuw i8, ptr %6, i64 192
  %16 = load ptr, ptr %15, align 8, !tbaa !51
  %17 = zext nneg i32 %9 to i64
  %18 = getelementptr inbounds nuw %struct.btMultibodyLink, ptr %16, i64 %17, i32 22
  %19 = load ptr, ptr %18, align 8, !tbaa !52
  %.not10 = icmp eq ptr %19, null
  br i1 %.not10, label %.thread, label %.thread.sink.split

.thread.sink.split:                               ; preds = %14, %11, %1
  %.sink14 = phi ptr [ %3, %1 ], [ %13, %11 ], [ %19, %14 ]
  %20 = getelementptr inbounds nuw i8, ptr %.sink14, i64 228
  %21 = load i32, ptr %20, align 4, !tbaa !58
  br label %.thread

.thread:                                          ; preds = %.thread.sink.split, %11, %4, %14
  %.04 = phi i32 [ -1, %14 ], [ -1, %4 ], [ -1, %11 ], [ %21, %.thread.sink.split ]
  ret i32 %.04
}